target datalayout = "e-m:e-p270:32:32-p271:32:32-p272:64:64-i64:64-i128:128-f80:128-n8:16:32:64-S128"
target triple = "x86_64-pc-linux-gnu"

%struct.tm = type { i32, i32, i32, i32, i32, i32, i32, i32, i32, i64, ptr }
%struct.RarLocalTime = type { i32, i32, i32, i32, i32, i32, i32, i32, i32 }
%class.RarTime = type { i64 }

; Function Attrs: mustprogress nounwind uwtable
define void @_ZN7RarTime9SetUnixNSEm(ptr noundef nonnull align 8 dereferenceable(8) %0, i64 noundef %1) #3 align 2 {
  %3 = alloca ptr, align 8
  %4 = alloca i64, align 8
  %5 = alloca i64, align 8
  store ptr %0, ptr %3, align 8, !tbaa !3
  store i64 %1, ptr %4, align 8, !tbaa !10
  %6 = load ptr, ptr %3, align 8
  call void @llvm.lifetime.start.p0(i64 8, ptr %5) #6
  store i64 -6802270473709551616, ptr %5, align 8, !tbaa !10
  %7 = load i64, ptr %4, align 8, !tbaa !10
  %8 = load i64, ptr %5, align 8, !tbaa !10
  %9 = add i64 %7, %8
  %10 = udiv i64 %9, 1
  %11 = getelementptr inbounds nuw %class.RarTime, ptr %6, i32 0, i32 0
  store i64 %10, ptr %11, align 8, !tbaa !34
  call void @llvm.lifetime.end.p0(i64 8, ptr %5) #6
  ret void
}

; Function Attrs: mustprogress uwtable
define void @_ZN7RarTime7SetUnixEl(ptr noundef nonnull align 8 dereferenceable(8) %0, i64 noundef %1) #0 align 2 {
  %3 = alloca ptr, align 8
  %4 = alloca i64, align 8
  store ptr %0, ptr %3, align 8, !tbaa !3
  store i64 %1, ptr %4, align 8, !tbaa !10
  %5 = load ptr, ptr %3, align 8
  %6 = load i64, ptr %4, align 8, !tbaa !10
  %7 = mul i64 %6, 1000000000
  call void @_ZN7RarTime9SetUnixNSEm(ptr noundef nonnull align 8 dereferenceable(8) %5, i64 noundef %7)
  ret void
}

; Function Attrs: mustprogress uwtable
define void @_ZN7RarTime8SetLocalEP12RarLocalTime(ptr noundef nonnull align 8 dereferenceable(8) %0, ptr noundef %1) #0 align 2 {
  %3 = alloca ptr, align 8
  %4 = alloca ptr, align 8
  %5 = alloca %struct.tm, align 8
  store ptr %0, ptr %3, align 8, !tbaa !3
  store ptr %1, ptr %4, align 8, !tbaa !8
  %6 = load ptr, ptr %3, align 8
  call void @llvm.lifetime.start.p0(i64 56, ptr %5) #6
  %7 = load ptr, ptr %4, align 8, !tbaa !8
  %8 = getelementptr inbounds nuw %struct.RarLocalTime, ptr %7, i32 0, i32 5
  %9 = load i32, ptr %8, align 4, !tbaa !29
  %10 = getelementptr inbounds nuw %struct.tm, ptr %5, i32 0, i32 0
  store i32 %9, ptr %10, align 8, !tbaa !28
  %11 = load ptr, ptr %4, align 8, !tbaa !8
  %12 = getelementptr inbounds nuw %struct.RarLocalTime, ptr %11, i32 0, i32 4
  %13 = load i32, ptr %12, align 4, !tbaa !27
  %14 = getelementptr inbounds nuw %struct.tm, ptr %5, i32 0, i32 1
  store i32 %13, ptr %14, align 4, !tbaa !26
  %15 = load ptr, ptr %4, align 8, !tbaa !8
  %16 = getelementptr inbounds nuw %struct.RarLocalTime, ptr %15, i32 0, i32 3
  %17 = load i32, ptr %16, align 4, !tbaa !25
  %18 = getelementptr inbounds nuw %struct.tm, ptr %5, i32 0, i32 2
  store i32 %17, ptr %18, align 8, !tbaa !24
  %19 = load ptr, ptr %4, align 8, !tbaa !8
  %20 = getelementptr inbounds nuw %struct.RarLocalTime, ptr %19, i32 0, i32 2
  %21 = load i32, ptr %20, align 4, !tbaa !23
  %22 = getelementptr inbounds nuw %struct.tm, ptr %5, i32 0, i32 3
  store i32 %21, ptr %22, align 4, !tbaa !22
  %23 = load ptr, ptr %4, align 8, !tbaa !8
  %24 = getelementptr inbounds nuw %struct.RarLocalTime, ptr %23, i32 0, i32 1
  %25 = load i32, ptr %24, align 4, !tbaa !21
  %26 = sub i32 %25, 1
  %27 = getelementptr inbounds nuw %struct.tm, ptr %5, i32 0, i32 4
  store i32 %26, ptr %27, align 8, !tbaa !20
  %28 = load ptr, ptr %4, align 8, !tbaa !8
  %29 = getelementptr inbounds nuw %struct.RarLocalTime, ptr %28, i32 0, i32 0
  %30 = load i32, ptr %29, align 4, !tbaa !18
  %31 = sub i32 %30, 1900
  %32 = getelementptr inbounds nuw %struct.tm, ptr %5, i32 0, i32 5
  store i32 %31, ptr %32, align 4, !tbaa !14
  %33 = getelementptr inbounds nuw %struct.tm, ptr %5, i32 0, i32 8
  store i32 -1, ptr %33, align 8, !tbaa !37
  %34 = call i64 @mktime(ptr noundef %5) #6
  call void @_ZN7RarTime7SetUnixEl(ptr noundef nonnull align 8 dereferenceable(8) %6, i64 noundef %34)
  %35 = load ptr, ptr %4, align 8, !tbaa !8
  %36 = getelementptr inbounds nuw %struct.RarLocalTime, ptr %35, i32 0, i32 6
  %37 = load i32, ptr %36, align 4, !tbaa !36
  %38 = zext i32 %37 to i64
  %39 = getelementptr inbounds nuw %class.RarTime, ptr %6, i32 0, i32 0
  %40 = load i64, ptr %39, align 8, !tbaa !34
  %41 = add i64 %40, %38
  store i64 %41, ptr %39, align 8, !tbaa !34
  call void @llvm.lifetime.end.p0(i64 56, ptr %5) #6
  ret void
}

; Function Attrs: mustprogress uwtable
define void @_ZN7RarTime6SetDosEj(ptr noundef nonnull align 8 dereferenceable(8) %0, i32 noundef %1) #0 align 2 {
  %3 = alloca ptr, align 8
  %4 = alloca i32, align 4
  %5 = alloca %struct.RarLocalTime, align 4
  store ptr %0, ptr %3, align 8, !tbaa !3
  store i32 %1, ptr %4, align 4, !tbaa !38
  %6 = load ptr, ptr %3, align 8
  call void @llvm.lifetime.start.p0(i64 36, ptr %5) #6
  %7 = load i32, ptr %4, align 4, !tbaa !38
  %8 = and i32 %7, 31
  %9 = mul i32 %8, 2
  %10 = getelementptr inbounds nuw %struct.RarLocalTime, ptr %5, i32 0, i32 5
  store i32 %9, ptr %10, align 4, !tbaa !29
  %11 = load i32, ptr %4, align 4, !tbaa !38
  %12 = lshr i32 %11, 5
  %13 = and i32 %12, 63
  %14 = getelementptr inbounds nuw %struct.RarLocalTime, ptr %5, i32 0, i32 4
  store i32 %13, ptr %14, align 4, !tbaa !27
  %15 = load i32, ptr %4, align 4, !tbaa !38
  %16 = lshr i32 %15, 11
  %17 = and i32 %16, 31
  %18 = getelementptr inbounds nuw %struct.RarLocalTime, ptr %5, i32 0, i32 3
  store i32 %17, ptr %18, align 4, !tbaa !25
  %19 = load i32, ptr %4, align 4, !tbaa !38
  %20 = lshr i32 %19, 16
  %21 = and i32 %20, 31
  %22 = getelementptr inbounds nuw %struct.RarLocalTime, ptr %5, i32 0, i32 2
  store i32 %21, ptr %22, align 4, !tbaa !23
  %23 = load i32, ptr %4, align 4, !tbaa !38
  %24 = lshr i32 %23, 21
  %25 = and i32 %24, 15
  %26 = getelementptr inbounds nuw %struct.RarLocalTime, ptr %5, i32 0, i32 1
  store i32 %25, ptr %26, align 4, !tbaa !21
  %27 = load i32, ptr %4, align 4, !tbaa !38
  %28 = lshr i32 %27, 25
  %29 = add i32 %28, 1980
  %30 = getelementptr inbounds nuw %struct.RarLocalTime, ptr %5, i32 0, i32 0
  store i32 %29, ptr %30, align 4, !tbaa !18
  %31 = getelementptr inbounds nuw %struct.RarLocalTime, ptr %5, i32 0, i32 6
  store i32 0, ptr %31, align 4, !tbaa !36
  call void @_ZN7RarTime8SetLocalEP12RarLocalTime(ptr noundef nonnull align 8 dereferenceable(8) %6, ptr noundef %5)
  call void @llvm.lifetime.end.p0(i64 36, ptr %5) #6
  ret void
}