; Function Attrs: mustprogress nofree nounwind willreturn uwtable
define void @_ZN7RarTime6SetDosEj(ptr noundef nonnull writeonly align 8 captures(none) dereferenceable(8) initializes((0, 8)) %0, i32 noundef %1) local_unnamed_addr #4 align 2 {
  %3 = alloca %struct.tm, align 8
  %4 = shl i32 %1, 1
  %5 = and i32 %4, 62
  %6 = lshr i32 %1, 5
  %7 = and i32 %6, 63
  %8 = lshr i32 %1, 11
  %9 = and i32 %8, 31
  %10 = lshr i32 %1, 16
  %11 = and i32 %10, 31
  %12 = lshr i32 %1, 21
  %13 = and i32 %12, 15
  %14 = lshr i32 %1, 25
  call void @llvm.lifetime.start.p0(i64 56, ptr nonnull %3) #13
  store i32 %5, ptr %3, align 8, !tbaa !24
  %15 = getelementptr inbounds nuw i8, ptr %3, i64 4
  store i32 %7, ptr %15, align 4, !tbaa !22
  %16 = getelementptr inbounds nuw i8, ptr %3, i64 8
  store i32 %9, ptr %16, align 8, !tbaa !20
  %17 = getelementptr inbounds nuw i8, ptr %3, i64 12
  store i32 %11, ptr %17, align 4, !tbaa !18
  %18 = add nsw i32 %13, -1
  %19 = getelementptr inbounds nuw i8, ptr %3, i64 16
  store i32 %18, ptr %19, align 8, !tbaa !16
  %20 = add nuw nsw i32 %14, 80
  %21 = getelementptr inbounds nuw i8, ptr %3, i64 20
  store i32 %20, ptr %21, align 4, !tbaa !9
  %22 = getelementptr inbounds nuw i8, ptr %3, i64 32
  store i32 -1, ptr %22, align 8, !tbaa !31
  %23 = call i64 @mktime(ptr noundef nonnull %3) #13
  %24 = mul i64 %23, 1000000000
  %25 = add i64 %24, -6802270473709551616
  store i64 %25, ptr %0, align 8, !tbaa !3
  call void @llvm.lifetime.end.p0(i64 56, ptr nonnull %3) #13
  ret void
}